target datalayout = "e-m:e-p270:32:32-p271:32:32-p272:64:64-i64:64-i128:128-f80:128-n8:16:32:64-S128"
target triple = "x86_64-pc-linux-gnu"

%struct.ImVec2 = type { float, float }
%struct.ExampleTreeNode = type { [28 x i8], i32, ptr, %struct.ImVector.21, i16, i8, i8, i32, %struct.ImVec2 }
%struct.ImVector.21 = type { i32, i32, ptr }

; Function Attrs: mustprogress uwtable
define internal void @_ZZL25ShowDemoWindowMultiSelectP19ImGuiDemoWindowDataEN16ExampleTreeFuncs15TreeNodeSetOpenEP15ExampleTreeNodeb(ptr noundef %0, i1 noundef zeroext %1) #0 align 2 {
  %3 = alloca ptr, align 8
  %4 = alloca i8, align 1
  store ptr %0, ptr %3, align 8, !tbaa !423
  %5 = zext i1 %1 to i8
  store i8 %5, ptr %4, align 1, !tbaa !35
  %6 = call noundef ptr @_ZN5ImGui15GetStateStorageEv()
  %7 = load ptr, ptr %3, align 8, !tbaa !423
  %8 = getelementptr inbounds nuw %struct.ExampleTreeNode, ptr %7, i32 0, i32 1
  %9 = load i32, ptr %8, align 4, !tbaa !489
  %10 = load i8, ptr %4, align 1, !tbaa !35, !range !13, !noundef !14
  %11 = trunc i8 %10 to i1
  call void @_ZN12ImGuiStorage7SetBoolEjb(ptr noundef nonnull align 8 dereferenceable(16) %6, i32 noundef %9, i1 noundef zeroext %11)
  ret void
}

; Function Attrs: inlinehint mustprogress nounwind uwtable
define linkonce_odr dso_local noundef ptr @_ZN8ImVectorIP15ExampleTreeNodeE3endEv(ptr noundef nonnull align 8 dereferenceable(16) %0) #6 comdat align 2 {
  %2 = alloca ptr, align 8
  store ptr %0, ptr %2, align 8, !tbaa !424
  %3 = load ptr, ptr %2, align 8
  %4 = getelementptr inbounds nuw %struct.ImVector.21, ptr %3, i32 0, i32 2
  %5 = load ptr, ptr %4, align 8, !tbaa !491
  %6 = getelementptr inbounds nuw %struct.ImVector.21, ptr %3, i32 0, i32 0
  %7 = load i32, ptr %6, align 8, !tbaa !492
  %8 = sext i32 %7 to i64
  %9 = getelementptr inbounds ptr, ptr %5, i64 %8
  ret ptr %9
}

; Function Attrs: inlinehint mustprogress nounwind uwtable
define linkonce_odr dso_local noundef ptr @_ZN8ImVectorIP15ExampleTreeNodeE5beginEv(ptr noundef nonnull align 8 dereferenceable(16) %0) #6 comdat align 2 {
  %2 = alloca ptr, align 8
  store ptr %0, ptr %2, align 8, !tbaa !424
  %3 = load ptr, ptr %2, align 8
  %4 = getelementptr inbounds nuw %struct.ImVector.21, ptr %3, i32 0, i32 2
  %5 = load ptr, ptr %4, align 8, !tbaa !491
  ret ptr %5
}

; Function Attrs: mustprogress uwtable
define internal noundef zeroext i1 @_ZZL25ShowDemoWindowMultiSelectP19ImGuiDemoWindowDataEN16ExampleTreeFuncs15TreeNodeGetOpenEP15ExampleTreeNode(ptr noundef %0) #0 align 2 {
  %2 = alloca ptr, align 8
  store ptr %0, ptr %2, align 8, !tbaa !423
  %3 = call noundef ptr @_ZN5ImGui15GetStateStorageEv()
  %4 = load ptr, ptr %2, align 8, !tbaa !423
  %5 = getelementptr inbounds nuw %struct.ExampleTreeNode, ptr %4, i32 0, i32 1
  %6 = load i32, ptr %5, align 4, !tbaa !489
  %7 = call noundef zeroext i1 @_ZNK12ImGuiStorage7GetBoolEjb(ptr noundef nonnull align 8 dereferenceable(16) %3, i32 noundef %6, i1 noundef zeroext false)
  ret i1 %7
}

; Function Attrs: mustprogress uwtable
define internal noundef i32 @_ZZL25ShowDemoWindowMultiSelectP19ImGuiDemoWindowDataEN16ExampleTreeFuncs30TreeCloseAndUnselectChildNodesEP15ExampleTreeNodeP26ImGuiSelectionBasicStoragei(ptr noundef %0, ptr noundef %1, i32 noundef %2) #0 align 2 {
  %4 = alloca ptr, align 8
  %5 = alloca ptr, align 8
  %6 = alloca i32, align 4
  %7 = alloca i32, align 4
  %8 = alloca ptr, align 8
  %9 = alloca ptr, align 8
  %10 = alloca ptr, align 8
  %11 = alloca ptr, align 8
  store ptr %0, ptr %4, align 8, !tbaa !423
  store ptr %1, ptr %5, align 8, !tbaa !419
  store i32 %2, ptr %6, align 4, !tbaa !33
  call void @llvm.lifetime.start.p0(i64 4, ptr %7) #7
  %12 = load ptr, ptr %5, align 8, !tbaa !419
  %13 = load ptr, ptr %4, align 8, !tbaa !423
  %14 = getelementptr inbounds nuw %struct.ExampleTreeNode, ptr %13, i32 0, i32 1
  %15 = load i32, ptr %14, align 4, !tbaa !489
  %16 = call noundef zeroext i1 @_ZNK26ImGuiSelectionBasicStorage8ContainsEj(ptr noundef nonnull align 8 dereferenceable(48) %12, i32 noundef %15)
  %17 = select i1 %16, i32 1, i32 0
  store i32 %17, ptr %7, align 4, !tbaa !33
  %18 = load i32, ptr %6, align 4, !tbaa !33
  %19 = icmp eq i32 %18, 0
  br i1 %19, label %23, label %20

20:                                               ; preds = %3
  %21 = load ptr, ptr %4, align 8, !tbaa !423
  %22 = call noundef zeroext i1 @_ZZL25ShowDemoWindowMultiSelectP19ImGuiDemoWindowDataEN16ExampleTreeFuncs15TreeNodeGetOpenEP15ExampleTreeNode(ptr noundef %21)
  br i1 %22, label %23, label %50

23:                                               ; preds = %20, %3
  call void @llvm.lifetime.start.p0(i64 8, ptr %8) #7
  %24 = load ptr, ptr %4, align 8, !tbaa !423
  %25 = getelementptr inbounds nuw %struct.ExampleTreeNode, ptr %24, i32 0, i32 3
  store ptr %25, ptr %8, align 8, !tbaa !424
  call void @llvm.lifetime.start.p0(i64 8, ptr %9) #7
  %26 = load ptr, ptr %8, align 8, !tbaa !424
  %27 = call noundef ptr @_ZN8ImVectorIP15ExampleTreeNodeE5beginEv(ptr noundef nonnull align 8 dereferenceable(16) %26)
  store ptr %27, ptr %9, align 8, !tbaa !426
  call void @llvm.lifetime.start.p0(i64 8, ptr %10) #7
  %28 = load ptr, ptr %8, align 8, !tbaa !424
  %29 = call noundef ptr @_ZN8ImVectorIP15ExampleTreeNodeE3endEv(ptr noundef nonnull align 8 dereferenceable(16) %28)
  store ptr %29, ptr %10, align 8, !tbaa !426
  br label %30

30:                                               ; preds = %45, %23
  %31 = load ptr, ptr %9, align 8, !tbaa !426
  %32 = load ptr, ptr %10, align 8, !tbaa !426
  %33 = icmp ne ptr %31, %32
  br i1 %33, label %35, label %34

34:                                               ; preds = %30
  call void @llvm.lifetime.end.p0(i64 8, ptr %10) #7
  call void @llvm.lifetime.end.p0(i64 8, ptr %9) #7
  call void @llvm.lifetime.end.p0(i64 8, ptr %8) #7
  br label %48

35:                                               ; preds = %30
  call void @llvm.lifetime.start.p0(i64 8, ptr %11) #7
  %36 = load ptr, ptr %9, align 8, !tbaa !426
  %37 = load ptr, ptr %36, align 8, !tbaa !423
  store ptr %37, ptr %11, align 8, !tbaa !423
  %38 = load ptr, ptr %11, align 8, !tbaa !423
  %39 = load ptr, ptr %5, align 8, !tbaa !419
  %40 = load i32, ptr %6, align 4, !tbaa !33
  %41 = add nsw i32 %40, 1
  %42 = call noundef i32 @_ZZL25ShowDemoWindowMultiSelectP19ImGuiDemoWindowDataEN16ExampleTreeFuncs30TreeCloseAndUnselectChildNodesEP15ExampleTreeNodeP26ImGuiSelectionBasicStoragei(ptr noundef %38, ptr noundef %39, i32 noundef %41)
  %43 = load i32, ptr %7, align 4, !tbaa !33
  %44 = add nsw i32 %43, %42
  store i32 %44, ptr %7, align 4, !tbaa !33
  call void @llvm.lifetime.end.p0(i64 8, ptr %11) #7
  br label %45

45:                                               ; preds = %35
  %46 = load ptr, ptr %9, align 8, !tbaa !426
  %47 = getelementptr inbounds nuw ptr, ptr %46, i32 1
  store ptr %47, ptr %9, align 8, !tbaa !426
  br label %30

48:                                               ; preds = %34
  %49 = load ptr, ptr %4, align 8, !tbaa !423
  call void @_ZZL25ShowDemoWindowMultiSelectP19ImGuiDemoWindowDataEN16ExampleTreeFuncs15TreeNodeSetOpenEP15ExampleTreeNodeb(ptr noundef %49, i1 noundef zeroext false)
  br label %50

50:                                               ; preds = %48, %20
  %51 = load ptr, ptr %5, align 8, !tbaa !419
  %52 = load ptr, ptr %4, align 8, !tbaa !423
  %53 = getelementptr inbounds nuw %struct.ExampleTreeNode, ptr %52, i32 0, i32 1
  %54 = load i32, ptr %53, align 4, !tbaa !489
  %55 = load i32, ptr %6, align 4, !tbaa !33
  %56 = icmp eq i32 %55, 0
  br i1 %56, label %57, label %60

57:                                               ; preds = %50
  %58 = load i32, ptr %7, align 4, !tbaa !33
  %59 = icmp sgt i32 %58, 0
  br label %60

60:                                               ; preds = %57, %50
  %61 = phi i1 [ false, %50 ], [ %59, %57 ]
  call void @_ZN26ImGuiSelectionBasicStorage15SetItemSelectedEjb(ptr noundef nonnull align 8 dereferenceable(48) %51, i32 noundef %54, i1 noundef zeroext %61)
  %62 = load i32, ptr %7, align 4, !tbaa !33
  call void @llvm.lifetime.end.p0(i64 4, ptr %7) #7
  ret i32 %62
}