; Function Attrs: mustprogress uwtable
define internal fastcc noundef i32 @_ZZL25ShowDemoWindowMultiSelectP19ImGuiDemoWindowDataEN16ExampleTreeFuncs30TreeCloseAndUnselectChildNodesEP15ExampleTreeNodeP26ImGuiSelectionBasicStoragei(ptr noundef readonly captures(none) %0, i32 noundef %1) unnamed_addr #2 align 2 {
  %3 = getelementptr inbounds nuw i8, ptr %0, i64 28
  %4 = load i32, ptr %3, align 4, !tbaa !465
  %5 = tail call noundef zeroext i1 @_ZNK26ImGuiSelectionBasicStorage8ContainsEj(ptr noundef nonnull align 8 dereferenceable(48) @_ZZL25ShowDemoWindowMultiSelectP19ImGuiDemoWindowDataE9selection_4, i32 noundef %4)
  %6 = zext i1 %5 to i32
  %7 = icmp eq i32 %1, 0
  br i1 %7, label %12, label %8

8:                                                ; preds = %2
  %9 = tail call noundef ptr @_ZN5ImGui15GetStateStorageEv()
  %10 = load i32, ptr %3, align 4, !tbaa !465
  %11 = tail call noundef zeroext i1 @_ZNK12ImGuiStorage7GetBoolEjb(ptr noundef nonnull align 8 dereferenceable(16) %9, i32 noundef %10, i1 noundef zeroext false)
  br i1 %11, label %12, label %27

12:                                               ; preds = %8, %2
  %13 = getelementptr inbounds nuw i8, ptr %0, i64 40
  %14 = getelementptr inbounds nuw i8, ptr %0, i64 48
  %15 = load ptr, ptr %14, align 8, !tbaa !435
  %16 = load i32, ptr %13, align 8, !tbaa !438
  %17 = sext i32 %16 to i64
  %18 = getelementptr inbounds ptr, ptr %15, i64 %17
  %.not1 = icmp eq i32 %16, 0
  br i1 %.not1, label %._crit_edge, label %.lr.ph

.lr.ph:                                           ; preds = %12
  %19 = add nsw i32 %1, 1
  br label %22

._crit_edge:                                      ; preds = %22, %12
  %.1.lcssa = phi i32 [ %6, %12 ], [ %25, %22 ]
  %20 = tail call noundef ptr @_ZN5ImGui15GetStateStorageEv()
  %21 = load i32, ptr %3, align 4, !tbaa !465
  tail call void @_ZN12ImGuiStorage7SetBoolEjb(ptr noundef nonnull align 8 dereferenceable(16) %20, i32 noundef %21, i1 noundef zeroext false)
  br label %27

22:                                               ; preds = %.lr.ph, %22
  %.13 = phi i32 [ %6, %.lr.ph ], [ %25, %22 ]
  %.0202 = phi ptr [ %15, %.lr.ph ], [ %26, %22 ]
  %23 = load ptr, ptr %.0202, align 8, !tbaa !439
  %24 = tail call fastcc noundef i32 @_ZZL25ShowDemoWindowMultiSelectP19ImGuiDemoWindowDataEN16ExampleTreeFuncs30TreeCloseAndUnselectChildNodesEP15ExampleTreeNodeP26ImGuiSelectionBasicStoragei(ptr noundef %23, i32 noundef %19)
  %25 = add nsw i32 %24, %.13
  %26 = getelementptr inbounds nuw i8, ptr %.0202, i64 8
  %.not = icmp eq ptr %26, %18
  br i1 %.not, label %._crit_edge, label %22

27:                                               ; preds = %._crit_edge, %8
  %.0 = phi i32 [ %.1.lcssa, %._crit_edge ], [ %6, %8 ]
  %28 = load i32, ptr %3, align 4, !tbaa !465
  %29 = icmp sgt i32 %.0, 0
  %30 = select i1 %7, i1 %29, i1 false
  tail call void @_ZN26ImGuiSelectionBasicStorage15SetItemSelectedEjb(ptr noundef nonnull align 8 dereferenceable(48) @_ZZL25ShowDemoWindowMultiSelectP19ImGuiDemoWindowDataE9selection_4, i32 noundef %28, i1 noundef zeroext %30)
  ret i32 %.0
}